; Function Attrs: mustprogress nounwind uwtable
define hidden noundef zeroext i1 @_ZN6Symbol22try_increment_refcountEv(ptr noundef nonnull align 4 dereferenceable(8) %0) local_unnamed_addr #1 align 2 {
  %2 = load volatile i32, ptr %0, align 4
  br label %3

3:                                                ; preds = %4, %1
  %.09 = phi i32 [ %2, %1 ], [ %6, %4 ]
  %trunc = trunc i32 %.09 to i16
  switch i16 %trunc, label %4 [
    i16 -1, label %.loopexit.loopexit
    i16 0, label %.loopexit
  ]

4:                                                ; preds = %3
  %5 = add i32 %.09, 1
  %6 = tail call noundef i32 asm sideeffect "lock cmpxchgl $1,($3)", "={ax},r,{ax},r,~{cc},~{memory},~{dirflag},~{fpsr},~{flags}"(i32 %5, i32 %.09, ptr nonnull %0) #17, !srcloc !15
  %7 = icmp eq i32 %6, %.09
  br i1 %7, label %.loopexit.loopexit, label %3, !llvm.loop !16

.loopexit.loopexit:                               ; preds = %3, %4
  br label %.loopexit

.loopexit:                                        ; preds = %3, %.loopexit.loopexit
  %.0 = phi i1 [ true, %.loopexit.loopexit ], [ false, %3 ]
  ret i1 %.0
}